; ModuleID = '45/603.c'
source_filename = "45/603.c"
target datalayout = "e-m:e-p270:32:32-p271:32:32-p272:64:64-i64:64-f80:128-n8:16:32:64-S128"
target triple = "x86_64-pc-linux-gnu"

@.str = private unnamed_addr constant [3 x i8] c"%s\00", align 1
@.str.1 = private unnamed_addr constant [3 x i8] c"%d\00", align 1

; Function Attrs: noinline nounwind uwtable
define dso_local void @main() #0 {
  %1 = alloca i32, align 4
  %2 = alloca [51 x i8], align 16
  %3 = alloca [51 x i8], align 16
  %4 = alloca i8*, align 8
  %5 = alloca i8*, align 8
  %6 = alloca i8*, align 8
  %7 = getelementptr inbounds [51 x i8], [51 x i8]* %2, i64 0, i64 0
  store i8* %7, i8** %4, align 8
  %8 = getelementptr inbounds [51 x i8], [51 x i8]* %3, i64 0, i64 0
  store i8* %8, i8** %5, align 8
  %9 = load i8*, i8** %4, align 8
  %10 = call i32 (i8*, ...) @__isoc99_scanf(i8* getelementptr inbounds ([3 x i8], [3 x i8]* @.str, i64 0, i64 0), i8* %9)
  %11 = load i8*, i8** %5, align 8
  %12 = call i32 (i8*, ...) @__isoc99_scanf(i8* getelementptr inbounds ([3 x i8], [3 x i8]* @.str, i64 0, i64 0), i8* %11)
  br label %13

13:                                               ; preds = %52, %0
  %14 = load i8*, i8** %5, align 8
  %15 = load i8, i8* %14, align 1
  %16 = sext i8 %15 to i32
  %17 = icmp ne i32 %16, 0
  br i1 %17, label %18, label %55

18:                                               ; preds = %13
  %19 = load i8*, i8** %5, align 8
  store i8* %19, i8** %6, align 8
  store i32 1, i32* %1, align 4
  %20 = getelementptr inbounds [51 x i8], [51 x i8]* %2, i64 0, i64 0
  store i8* %20, i8** %4, align 8
  br label %21

21:                                               ; preds = %37, %18
  %22 = load i8*, i8** %4, align 8
  %23 = load i8, i8* %22, align 1
  %24 = sext i8 %23 to i32
  %25 = icmp ne i32 %24, 0
  br i1 %25, label %26, label %42

26:                                               ; preds = %21
  %27 = load i8*, i8** %5, align 8
  %28 = load i8, i8* %27, align 1
  %29 = sext i8 %28 to i32
  %30 = load i8*, i8** %4, align 8
  %31 = load i8, i8* %30, align 1
  %32 = sext i8 %31 to i32
  %33 = icmp ne i32 %29, %32
  br i1 %33, label %34, label %36

34:                                               ; preds = %26
  store i32 0, i32* %1, align 4
  %35 = load i8*, i8** %6, align 8
  store i8* %35, i8** %5, align 8
  br label %42

36:                                               ; preds = %26
  br label %37

37:                                               ; preds = %36
  %38 = load i8*, i8** %5, align 8
  %39 = getelementptr inbounds i8, i8* %38, i32 1
  store i8* %39, i8** %5, align 8
  %40 = load i8*, i8** %4, align 8
  %41 = getelementptr inbounds i8, i8* %40, i32 1
  store i8* %41, i8** %4, align 8
  br label %21

42:                                               ; preds = %34, %21
  %43 = load i32, i32* %1, align 4
  %44 = icmp ne i32 %43, 0
  br i1 %44, label %45, label %52

45:                                               ; preds = %42
  %46 = load i8*, i8** %6, align 8
  %47 = getelementptr inbounds [51 x i8], [51 x i8]* %3, i64 0, i64 0
  %48 = ptrtoint i8* %46 to i64
  %49 = ptrtoint i8* %47 to i64
  %50 = sub i64 %48, %49
  %51 = call i32 (i8*, ...) @printf(i8* getelementptr inbounds ([3 x i8], [3 x i8]* @.str.1, i64 0, i64 0), i64 %50)
  br label %55

52:                                               ; preds = %42
  %53 = load i8*, i8** %5, align 8
  %54 = getelementptr inbounds i8, i8* %53, i32 1
  store i8* %54, i8** %5, align 8
  br label %13

55:                                               ; preds = %45, %13
  ret void
}

declare dso_local i32 @__isoc99_scanf(i8*, ...) #1

declare dso_local i32 @printf(i8*, ...) #1


!llvm.module.flags = !{!0}
!llvm.ident = !{!1}

!0 = !{i32 1, !"wchar_size", i32 4}
!1 = !{!"clang version 10.0.0-4ubuntu1 "}
